; Function Attrs: nounwind uwtable
define dso_local void @index_parallelrescan(ptr noundef %0) local_unnamed_addr #0 {
  %2 = getelementptr inbounds nuw i8, ptr %0, i64 104
  %3 = load ptr, ptr %2, align 8
  %.not = icmp eq ptr %3, null
  br i1 %.not, label %10, label %4

4:                                                ; preds = %1
  %5 = load ptr, ptr %3, align 8
  %6 = getelementptr inbounds nuw i8, ptr %5, i64 320
  %7 = load ptr, ptr %6, align 8
  %8 = getelementptr inbounds nuw i8, ptr %7, i64 96
  %9 = load ptr, ptr %8, align 8
  tail call void %9(ptr noundef nonnull %3) #7
  br label %10

10:                                               ; preds = %4, %1
  %11 = getelementptr inbounds nuw i8, ptr %0, i64 8
  %12 = load ptr, ptr %11, align 8
  %13 = getelementptr inbounds nuw i8, ptr %12, i64 352
  %14 = load ptr, ptr %13, align 8
  %15 = getelementptr inbounds nuw i8, ptr %14, i64 216
  %16 = load ptr, ptr %15, align 8
  %.not6 = icmp eq ptr %16, null
  br i1 %.not6, label %18, label %17

17:                                               ; preds = %10
  tail call void %16(ptr noundef nonnull %0) #7
  br label %18

18:                                               ; preds = %17, %10
  ret void
}